target datalayout = "e-m:e-p270:32:32-p271:32:32-p272:64:64-i64:64-i128:128-f80:128-n8:16:32:64-S128"
target triple = "x86_64-pc-linux-gnu"

; Function Attrs: mustprogress nounwind uwtable
define hidden noundef i32 @_ZN10duckdb_re210chartoruneEPiPKc(ptr noundef %0, ptr noundef %1) #0 {
  %3 = alloca i32, align 4
  %4 = alloca ptr, align 8
  %5 = alloca ptr, align 8
  %6 = alloca i32, align 4
  %7 = alloca i32, align 4
  %8 = alloca i32, align 4
  %9 = alloca i32, align 4
  %10 = alloca i32, align 4
  %11 = alloca i32, align 4
  store ptr %0, ptr %4, align 8, !tbaa !3
  store ptr %1, ptr %5, align 8, !tbaa !8
  call void @llvm.lifetime.start.p0(i64 4, ptr %6) #3
  call void @llvm.lifetime.start.p0(i64 4, ptr %7) #3
  call void @llvm.lifetime.start.p0(i64 4, ptr %8) #3
  call void @llvm.lifetime.start.p0(i64 4, ptr %9) #3
  call void @llvm.lifetime.start.p0(i64 4, ptr %10) #3
  %12 = load ptr, ptr %5, align 8, !tbaa !8
  %13 = load i8, ptr %12, align 1, !tbaa !10
  %14 = zext i8 %13 to i32
  store i32 %14, ptr %6, align 4, !tbaa !11
  %15 = load i32, ptr %6, align 4, !tbaa !11
  %16 = icmp slt i32 %15, 128
  br i1 %16, label %17, label %20

17:                                               ; preds = %2
  %18 = load i32, ptr %6, align 4, !tbaa !11
  %19 = load ptr, ptr %4, align 8, !tbaa !3
  store i32 %18, ptr %19, align 4, !tbaa !11
  store i32 1, ptr %3, align 4
  store i32 1, ptr %11, align 4
  br label %111

20:                                               ; preds = %2
  %21 = load ptr, ptr %5, align 8, !tbaa !8
  %22 = getelementptr inbounds i8, ptr %21, i64 1
  %23 = load i8, ptr %22, align 1, !tbaa !10
  %24 = zext i8 %23 to i32
  %25 = xor i32 %24, 128
  store i32 %25, ptr %7, align 4, !tbaa !11
  %26 = load i32, ptr %7, align 4, !tbaa !11
  %27 = and i32 %26, 192
  %28 = icmp ne i32 %27, 0
  br i1 %28, label %29, label %30

29:                                               ; preds = %20
  br label %109

30:                                               ; preds = %20
  %31 = load i32, ptr %6, align 4, !tbaa !11
  %32 = icmp slt i32 %31, 224
  br i1 %32, label %33, label %49

33:                                               ; preds = %30
  %34 = load i32, ptr %6, align 4, !tbaa !11
  %35 = icmp slt i32 %34, 192
  br i1 %35, label %36, label %37

36:                                               ; preds = %33
  br label %109

37:                                               ; preds = %33
  %38 = load i32, ptr %6, align 4, !tbaa !11
  %39 = shl i32 %38, 6
  %40 = load i32, ptr %7, align 4, !tbaa !11
  %41 = or i32 %39, %40
  %42 = and i32 %41, 2047
  store i32 %42, ptr %10, align 4, !tbaa !11
  %43 = load i32, ptr %10, align 4, !tbaa !11
  %44 = icmp sle i32 %43, 127
  br i1 %44, label %45, label %46

45:                                               ; preds = %37
  br label %109

46:                                               ; preds = %37
  %47 = load i32, ptr %10, align 4, !tbaa !11
  %48 = load ptr, ptr %4, align 8, !tbaa !3
  store i32 %47, ptr %48, align 4, !tbaa !11
  store i32 2, ptr %3, align 4
  store i32 1, ptr %11, align 4
  br label %111

49:                                               ; preds = %30
  %50 = load ptr, ptr %5, align 8, !tbaa !8
  %51 = getelementptr inbounds i8, ptr %50, i64 2
  %52 = load i8, ptr %51, align 1, !tbaa !10
  %53 = zext i8 %52 to i32
  %54 = xor i32 %53, 128
  store i32 %54, ptr %8, align 4, !tbaa !11
  %55 = load i32, ptr %8, align 4, !tbaa !11
  %56 = and i32 %55, 192
  %57 = icmp ne i32 %56, 0
  br i1 %57, label %58, label %59

58:                                               ; preds = %49
  br label %109

59:                                               ; preds = %49
  %60 = load i32, ptr %6, align 4, !tbaa !11
  %61 = icmp slt i32 %60, 240
  br i1 %61, label %62, label %77

62:                                               ; preds = %59
  %63 = load i32, ptr %6, align 4, !tbaa !11
  %64 = shl i32 %63, 6
  %65 = load i32, ptr %7, align 4, !tbaa !11
  %66 = or i32 %64, %65
  %67 = shl i32 %66, 6
  %68 = load i32, ptr %8, align 4, !tbaa !11
  %69 = or i32 %67, %68
  %70 = and i32 %69, 65535
  store i32 %70, ptr %10, align 4, !tbaa !11
  %71 = load i32, ptr %10, align 4, !tbaa !11
  %72 = icmp sle i32 %71, 2047
  br i1 %72, label %73, label %74

73:                                               ; preds = %62
  br label %109

74:                                               ; preds = %62
  %75 = load i32, ptr %10, align 4, !tbaa !11
  %76 = load ptr, ptr %4, align 8, !tbaa !3
  store i32 %75, ptr %76, align 4, !tbaa !11
  store i32 3, ptr %3, align 4
  store i32 1, ptr %11, align 4
  br label %111

77:                                               ; preds = %59
  %78 = load ptr, ptr %5, align 8, !tbaa !8
  %79 = getelementptr inbounds i8, ptr %78, i64 3
  %80 = load i8, ptr %79, align 1, !tbaa !10
  %81 = zext i8 %80 to i32
  %82 = xor i32 %81, 128
  store i32 %82, ptr %9, align 4, !tbaa !11
  %83 = load i32, ptr %9, align 4, !tbaa !11
  %84 = and i32 %83, 192
  %85 = icmp ne i32 %84, 0
  br i1 %85, label %86, label %87

86:                                               ; preds = %77
  br label %109

87:                                               ; preds = %77
  %88 = load i32, ptr %6, align 4, !tbaa !11
  %89 = icmp slt i32 %88, 248
  br i1 %89, label %90, label %108

90:                                               ; preds = %87
  %91 = load i32, ptr %6, align 4, !tbaa !11
  %92 = shl i32 %91, 6
  %93 = load i32, ptr %7, align 4, !tbaa !11
  %94 = or i32 %92, %93
  %95 = shl i32 %94, 6
  %96 = load i32, ptr %8, align 4, !tbaa !11
  %97 = or i32 %95, %96
  %98 = shl i32 %97, 6
  %99 = load i32, ptr %9, align 4, !tbaa !11
  %100 = or i32 %98, %99
  %101 = and i32 %100, 2097151
  store i32 %101, ptr %10, align 4, !tbaa !11
  %102 = load i32, ptr %10, align 4, !tbaa !11
  %103 = icmp sle i32 %102, 65535
  br i1 %103, label %104, label %105

104:                                              ; preds = %90
  br label %109

105:                                              ; preds = %90
  %106 = load i32, ptr %10, align 4, !tbaa !11
  %107 = load ptr, ptr %4, align 8, !tbaa !3
  store i32 %106, ptr %107, align 4, !tbaa !11
  store i32 4, ptr %3, align 4
  store i32 1, ptr %11, align 4
  br label %111

108:                                              ; preds = %87
  br label %109

109:                                              ; preds = %108, %104, %86, %73, %58, %45, %36, %29
  %110 = load ptr, ptr %4, align 8, !tbaa !3
  store i32 65533, ptr %110, align 4, !tbaa !11
  store i32 1, ptr %3, align 4
  store i32 1, ptr %11, align 4
  br label %111

111:                                              ; preds = %109, %105, %74, %46, %17
  call void @llvm.lifetime.end.p0(i64 4, ptr %10) #3
  call void @llvm.lifetime.end.p0(i64 4, ptr %9) #3
  call void @llvm.lifetime.end.p0(i64 4, ptr %8) #3
  call void @llvm.lifetime.end.p0(i64 4, ptr %7) #3
  call void @llvm.lifetime.end.p0(i64 4, ptr %6) #3
  %112 = load i32, ptr %3, align 4
  ret i32 %112
}