; Function Attrs: mustprogress nofree norecurse nosync nounwind willreturn memory(argmem: readwrite) uwtable
define hidden noundef range(i32 1, 5) i32 @_ZN10duckdb_re210chartoruneEPiPKc(ptr noundef writeonly captures(none) initializes((0, 4)) %0, ptr noundef readonly captures(none) %1) local_unnamed_addr #0 {
  %3 = load i8, ptr %1, align 1, !tbaa !3
  %4 = zext i8 %3 to i32
  %5 = icmp sgt i8 %3, -1
  br i1 %5, label %49, label %6

6:                                                ; preds = %2
  %7 = getelementptr inbounds nuw i8, ptr %1, i64 1
  %8 = load i8, ptr %7, align 1, !tbaa !3
  %9 = xor i8 %8, -128
  %10 = zext i8 %9 to i32
  %.not = icmp ult i8 %9, 64
  br i1 %.not, label %11, label %48

11:                                               ; preds = %6
  %12 = icmp samesign ult i8 %3, -32
  br i1 %12, label %13, label %19

13:                                               ; preds = %11
  %14 = icmp samesign ult i8 %3, -64
  br i1 %14, label %48, label %15

15:                                               ; preds = %13
  %16 = shl nuw nsw i32 %4, 6
  %.masked41 = and i32 %16, 1984
  %17 = or disjoint i32 %.masked41, %10
  %18 = icmp samesign ult i32 %17, 128
  br i1 %18, label %48, label %49

19:                                               ; preds = %11
  %20 = getelementptr inbounds nuw i8, ptr %1, i64 2
  %21 = load i8, ptr %20, align 1, !tbaa !3
  %22 = xor i8 %21, -128
  %23 = zext i8 %22 to i32
  %.not38 = icmp ult i8 %22, 64
  br i1 %.not38, label %24, label %48

24:                                               ; preds = %19
  %25 = icmp samesign ult i8 %3, -16
  br i1 %25, label %26, label %32

26:                                               ; preds = %24
  %27 = shl nuw nsw i32 %4, 12
  %28 = shl nuw nsw i32 %10, 6
  %.masked40 = and i32 %27, 61440
  %.masked39 = or disjoint i32 %28, %.masked40
  %29 = icmp samesign ult i32 %.masked39, 2048
  br i1 %29, label %48, label %30

30:                                               ; preds = %26
  %31 = or disjoint i32 %.masked39, %23
  br label %49

32:                                               ; preds = %24
  %33 = getelementptr inbounds nuw i8, ptr %1, i64 3
  %34 = load i8, ptr %33, align 1, !tbaa !3
  %35 = xor i8 %34, -128
  %36 = icmp ult i8 %35, 64
  %37 = icmp samesign ult i8 %3, -8
  %or.cond = and i1 %37, %36
  br i1 %or.cond, label %38, label %48

38:                                               ; preds = %32
  %39 = shl nuw nsw i32 %4, 12
  %40 = shl nuw nsw i32 %10, 6
  %41 = or disjoint i32 %40, %39
  %42 = or disjoint i32 %41, %23
  %43 = shl nuw nsw i32 %42, 6
  %.masked = and i32 %43, 2097088
  %44 = icmp samesign ult i32 %.masked, 65536
  br i1 %44, label %48, label %45

45:                                               ; preds = %38
  %46 = zext nneg i8 %35 to i32
  %47 = or disjoint i32 %.masked, %46
  br label %49

48:                                               ; preds = %38, %32, %26, %19, %15, %13, %6
  br label %49

49:                                               ; preds = %15, %2, %48, %45, %30
  %.sink = phi i32 [ 65533, %48 ], [ %47, %45 ], [ %31, %30 ], [ %4, %2 ], [ %17, %15 ]
  %.0 = phi i32 [ 1, %48 ], [ 4, %45 ], [ 3, %30 ], [ 1, %2 ], [ 2, %15 ]
  store i32 %.sink, ptr %0, align 4, !tbaa !6
  ret i32 %.0
}